target datalayout = "e-m:e-p270:32:32-p271:32:32-p272:64:64-i64:64-i128:128-f80:128-n8:16:32:64-S128"
target triple = "x86_64-pc-linux-gnu"

%"class.folly::exception_shared_string" = type { i64 }
%"struct.folly::exception_shared_string::state" = type { %"struct.std::atomic.1", i64 }
%"struct.std::atomic.1" = type { %"struct.std::__atomic_base.2" }
%"struct.std::__atomic_base.2" = type { i64 }

; Function Attrs: mustprogress nounwind uwtable
define linkonce_odr noundef ptr @_ZNK5folly23exception_shared_string5state4whatEv(ptr noundef nonnull align 8 dereferenceable(16) %0) #0 comdat align 2 {
  %2 = alloca ptr, align 8
  store ptr %0, ptr %2, align 8, !tbaa !92
  %3 = load ptr, ptr %2, align 8
  %4 = getelementptr inbounds nuw %"struct.folly::exception_shared_string::state", ptr %3, i64 1
  ret ptr %4
}

; Function Attrs: mustprogress nounwind uwtable
define noundef ptr @_ZNK5folly23exception_shared_string4whatEv(ptr noundef nonnull align 8 dereferenceable(8) %0) #0 align 2 {
  %2 = alloca ptr, align 8
  store ptr %0, ptr %2, align 8, !tbaa !84
  %3 = load ptr, ptr %2, align 8
  %4 = getelementptr inbounds nuw %"class.folly::exception_shared_string", ptr %3, i32 0, i32 0
  %5 = load i64, ptr %4, align 8, !tbaa !86
  %6 = and i64 %5, 1
  %7 = icmp ne i64 %6, 0
  br i1 %7, label %8, label %12

8:                                                ; preds = %1
  %9 = getelementptr inbounds nuw %"class.folly::exception_shared_string", ptr %3, i32 0, i32 0
  %10 = load i64, ptr %9, align 8, !tbaa !86
  %11 = inttoptr i64 %10 to ptr
  br label %17

12:                                               ; preds = %1
  %13 = getelementptr inbounds nuw %"class.folly::exception_shared_string", ptr %3, i32 0, i32 0
  %14 = load i64, ptr %13, align 8, !tbaa !86
  %15 = inttoptr i64 %14 to ptr
  %16 = call noundef ptr @_ZNK5folly23exception_shared_string5state4whatEv(ptr noundef nonnull align 8 dereferenceable(16) %15) #20
  br label %17

17:                                               ; preds = %12, %8
  %18 = phi ptr [ %11, %8 ], [ %16, %12 ]
  ret ptr %18
}