; Function Attrs: mustprogress nofree norecurse nosync nounwind willreturn memory(argmem: read) uwtable
define noundef ptr @_ZNK5folly23exception_shared_string4whatEv(ptr noundef nonnull readonly align 8 captures(none) dereferenceable(8) %0) local_unnamed_addr #19 align 2 {
  %2 = load i64, ptr %0, align 8, !tbaa !49
  %3 = inttoptr i64 %2 to ptr
  %4 = shl i64 %2, 4
  %5 = and i64 %4, 16
  %.idx = xor i64 %5, 16
  %6 = getelementptr inbounds nuw i8, ptr %3, i64 %.idx
  ret ptr %6
}